; Function Attrs: nofree norecurse nosync nounwind memory(read, argmem: readwrite, inaccessiblemem: none) uwtable
define internal void @planar_rgbf16le_to_a(ptr noundef writeonly captures(none) %0, ptr noundef readonly captures(none) %1, i32 noundef %2, ptr readnone captures(none) %3, ptr noundef readonly captures(none) %4) #2 {
  %6 = icmp sgt i32 %2, 0
  br i1 %6, label %.lr.ph, label %planar_rgbf16_to_a.exit

.lr.ph:                                           ; preds = %5
  %7 = getelementptr inbounds nuw i8, ptr %1, i64 24
  %8 = getelementptr inbounds nuw i8, ptr %4, i64 12544
  %9 = getelementptr inbounds nuw i8, ptr %4, i64 12288
  %wide.trip.count = zext nneg i32 %2 to i64
  br label %10

10:                                               ; preds = %.lr.ph, %10
  %indvars.iv = phi i64 [ 0, %.lr.ph ], [ %indvars.iv.next, %10 ]
  %11 = load ptr, ptr %7, align 8, !tbaa !51
  %12 = shl nuw nsw i64 %indvars.iv, 1
  %13 = getelementptr inbounds nuw i8, ptr %11, i64 %12
  %14 = load i16, ptr %13, align 1, !tbaa !34
  %15 = zext i16 %14 to i32
  %16 = lshr i32 %15, 10
  %17 = zext nneg i32 %16 to i64
  %18 = getelementptr inbounds nuw [64 x i16], ptr %8, i64 0, i64 %17
  %19 = load i16, ptr %18, align 2, !tbaa !43
  %20 = zext i16 %19 to i32
  %21 = and i32 %15, 1023
  %22 = add nuw nsw i32 %21, %20
  %23 = zext nneg i32 %22 to i64
  %24 = getelementptr inbounds nuw [3072 x i32], ptr %4, i64 0, i64 %23
  %25 = load i32, ptr %24, align 4, !tbaa !42
  %26 = getelementptr inbounds nuw [64 x i32], ptr %9, i64 0, i64 %17
  %27 = load i32, ptr %26, align 4, !tbaa !42
  %28 = add i32 %27, %25
  %29 = bitcast i32 %28 to float
  %30 = fmul nsz float %29, 6.553500e+04
  %31 = fcmp nsz ogt float %30, 0.000000e+00
  %32 = select nsz i1 %31, float %30, float 0.000000e+00
  %33 = fcmp nsz ogt float %32, 6.553500e+04
  %..i.i = select nsz i1 %33, float 6.553500e+04, float %32
  %34 = tail call i64 @llvm.lrint.i64.f32(float %..i.i)
  %35 = trunc i64 %34 to i16
  %36 = getelementptr inbounds nuw i8, ptr %0, i64 %12
  store i16 %35, ptr %36, align 1, !tbaa !34
  %indvars.iv.next = add nuw nsw i64 %indvars.iv, 1
  %exitcond.not = icmp eq i64 %indvars.iv.next, %wide.trip.count
  br i1 %exitcond.not, label %planar_rgbf16_to_a.exit, label %10, !llvm.loop !95

planar_rgbf16_to_a.exit:                          ; preds = %10, %5
  ret void
}